target datalayout = "e-m:e-p270:32:32-p271:32:32-p272:64:64-i64:64-i128:128-f80:128-n8:16:32:64-S128"
target triple = "x86_64-pc-linux-gnu"

%struct.sched_param = type { i32 }

; Function Attrs: inlinehint nounwind willreturn memory(none) uwtable
define available_externally i32 @pthread_equal(i64 noundef %0, i64 noundef %1) #9 {
  %3 = alloca i64, align 8
  %4 = alloca i64, align 8
  store i64 %0, ptr %3, align 8
  store i64 %1, ptr %4, align 8
  %5 = load i64, ptr %3, align 8
  %6 = load i64, ptr %4, align 8
  %7 = icmp eq i64 %5, %6
  %8 = zext i1 %7 to i32
  ret i32 %8
}

; Function Attrs: nounwind uwtable
define dso_local i32 @uv_thread_getpriority(i64 noundef %0, ptr noundef %1) #0 {
  %3 = alloca i32, align 4
  %4 = alloca i64, align 8
  %5 = alloca ptr, align 8
  %6 = alloca i32, align 4
  %7 = alloca i32, align 4
  %8 = alloca %struct.sched_param, align 4
  %9 = alloca i32, align 4
  %10 = alloca i32, align 4
  store i64 %0, ptr %4, align 8
  store ptr %1, ptr %5, align 8
  call void @llvm.lifetime.start.p0(i64 4, ptr %6) #11
  call void @llvm.lifetime.start.p0(i64 4, ptr %7) #11
  call void @llvm.lifetime.start.p0(i64 4, ptr %8) #11
  call void @llvm.lifetime.start.p0(i64 4, ptr %9) #11
  %11 = call i64 (i64, ...) @syscall(i64 noundef 186) #11
  %12 = trunc i64 %11 to i32
  store i32 %12, ptr %9, align 4
  %13 = load ptr, ptr %5, align 8
  %14 = icmp eq ptr %13, null
  br i1 %14, label %15, label %16

15:                                               ; preds = %2
  store i32 -22, ptr %3, align 4
  store i32 1, ptr %10, align 4
  br label %54

16:                                               ; preds = %2
  %17 = load i64, ptr %4, align 8
  %18 = call i32 @pthread_getschedparam(i64 noundef %17, ptr noundef %7, ptr noundef %8) #11
  store i32 %18, ptr %6, align 4
  %19 = load i32, ptr %6, align 4
  %20 = icmp ne i32 %19, 0
  br i1 %20, label %21, label %25

21:                                               ; preds = %16
  %22 = call ptr @__errno_location() #12
  %23 = load i32, ptr %22, align 4
  %24 = sub nsw i32 0, %23
  store i32 %24, ptr %3, align 4
  store i32 1, ptr %10, align 4
  br label %54

25:                                               ; preds = %16
  %26 = load i32, ptr %7, align 4
  %27 = icmp eq i32 0, %26
  br i1 %27, label %28, label %50

28:                                               ; preds = %25
  %29 = load i64, ptr %4, align 8
  %30 = call i64 @pthread_self() #12
  %31 = call i32 @pthread_equal(i64 noundef %29, i64 noundef %30) #12
  %32 = icmp ne i32 %31, 0
  br i1 %32, label %33, label %50

33:                                               ; preds = %28
  %34 = call ptr @__errno_location() #12
  store i32 0, ptr %34, align 4
  %35 = load i32, ptr %9, align 4
  %36 = call i32 @getpriority(i32 noundef 0, i32 noundef %35) #11
  store i32 %36, ptr %6, align 4
  %37 = load i32, ptr %6, align 4
  %38 = icmp eq i32 %37, -1
  br i1 %38, label %39, label %47

39:                                               ; preds = %33
  %40 = call ptr @__errno_location() #12
  %41 = load i32, ptr %40, align 4
  %42 = icmp ne i32 %41, 0
  br i1 %42, label %43, label %47

43:                                               ; preds = %39
  %44 = call ptr @__errno_location() #12
  %45 = load i32, ptr %44, align 4
  %46 = sub nsw i32 0, %45
  store i32 %46, ptr %3, align 4
  store i32 1, ptr %10, align 4
  br label %54

47:                                               ; preds = %39, %33
  %48 = load i32, ptr %6, align 4
  %49 = load ptr, ptr %5, align 8
  store i32 %48, ptr %49, align 4
  store i32 0, ptr %3, align 4
  store i32 1, ptr %10, align 4
  br label %54

50:                                               ; preds = %28, %25
  %51 = getelementptr inbounds nuw %struct.sched_param, ptr %8, i32 0, i32 0
  %52 = load i32, ptr %51, align 4
  %53 = load ptr, ptr %5, align 8
  store i32 %52, ptr %53, align 4
  store i32 0, ptr %3, align 4
  store i32 1, ptr %10, align 4
  br label %54

54:                                               ; preds = %50, %47, %43, %21, %15
  call void @llvm.lifetime.end.p0(i64 4, ptr %9) #11
  call void @llvm.lifetime.end.p0(i64 4, ptr %8) #11
  call void @llvm.lifetime.end.p0(i64 4, ptr %7) #11
  call void @llvm.lifetime.end.p0(i64 4, ptr %6) #11
  %55 = load i32, ptr %3, align 4
  ret i32 %55
}