; Function Attrs: nounwind uwtable
define dso_local range(i32 -2147483647, -2147483648) i32 @uv_thread_getpriority(i64 noundef %0, ptr noundef writeonly captures(address_is_null) %1) local_unnamed_addr #0 {
  %3 = alloca i32, align 4
  %4 = alloca %struct.sched_param, align 4
  call void @llvm.lifetime.start.p0(i64 4, ptr nonnull %3) #23
  call void @llvm.lifetime.start.p0(i64 4, ptr nonnull %4) #23
  %5 = tail call i64 (i64, ...) @syscall(i64 noundef 186) #23
  %6 = trunc i64 %5 to i32
  %7 = icmp eq ptr %1, null
  br i1 %7, label %30, label %8

8:                                                ; preds = %2
  %9 = call i32 @pthread_getschedparam(i64 noundef %0, ptr noundef nonnull %3, ptr noundef nonnull %4) #23
  %.not = icmp eq i32 %9, 0
  br i1 %.not, label %14, label %10

10:                                               ; preds = %8
  %11 = tail call ptr @__errno_location() #24
  %12 = load i32, ptr %11, align 4
  %13 = sub nsw i32 0, %12
  br label %30

14:                                               ; preds = %8
  %15 = load i32, ptr %3, align 4
  %16 = icmp eq i32 %15, 0
  br i1 %16, label %17, label %28

17:                                               ; preds = %14
  %18 = tail call i64 @pthread_self() #24
  %.not13 = icmp eq i64 %0, %18
  br i1 %.not13, label %19, label %28

19:                                               ; preds = %17
  %20 = tail call ptr @__errno_location() #24
  store i32 0, ptr %20, align 4
  %21 = call i32 @getpriority(i32 noundef 0, i32 noundef %6) #23
  %22 = icmp eq i32 %21, -1
  br i1 %22, label %23, label %27

23:                                               ; preds = %19
  %24 = load i32, ptr %20, align 4
  %.not12 = icmp eq i32 %24, 0
  br i1 %.not12, label %27, label %25

25:                                               ; preds = %23
  %26 = sub nsw i32 0, %24
  br label %30

27:                                               ; preds = %23, %19
  store i32 %21, ptr %1, align 4
  br label %30

28:                                               ; preds = %17, %14
  %29 = load i32, ptr %4, align 4
  store i32 %29, ptr %1, align 4
  br label %30

30:                                               ; preds = %2, %28, %27, %25, %10
  %.0 = phi i32 [ %13, %10 ], [ %26, %25 ], [ 0, %27 ], [ 0, %28 ], [ -22, %2 ]
  call void @llvm.lifetime.end.p0(i64 4, ptr nonnull %4) #23
  call void @llvm.lifetime.end.p0(i64 4, ptr nonnull %3) #23
  ret i32 %.0
}